target datalayout = "e-m:e-p270:32:32-p271:32:32-p272:64:64-i64:64-i128:128-f80:128-n8:16:32:64-S128"
target triple = "x86_64-pc-linux-gnu"

%struct.config_context = type { ptr }

@tar_umask = internal global i32 2, align 4
@.str.38 = private unnamed_addr constant [10 x i8] c"tar.umask\00", align 1
@.str.39 = private unnamed_addr constant [5 x i8] c"user\00", align 1

; Function Attrs: nounwind uwtable
define internal i32 @git_tar_config(ptr noundef %0, ptr noundef %1, ptr noundef %2, ptr noundef %3) #0 {
  %5 = alloca i32, align 4
  %6 = alloca ptr, align 8
  %7 = alloca ptr, align 8
  %8 = alloca ptr, align 8
  %9 = alloca ptr, align 8
  store ptr %0, ptr %6, align 8, !tbaa !18
  store ptr %1, ptr %7, align 8, !tbaa !18
  store ptr %2, ptr %8, align 8, !tbaa !27
  store ptr %3, ptr %9, align 8, !tbaa !19
  %10 = load ptr, ptr %6, align 8, !tbaa !18
  %11 = call i32 @strcmp(ptr noundef %10, ptr noundef @.str.38) #10
  %12 = icmp ne i32 %11, 0
  br i1 %12, label %32, label %13

13:                                               ; preds = %4
  %14 = load ptr, ptr %7, align 8, !tbaa !18
  %15 = icmp ne ptr %14, null
  br i1 %15, label %16, label %24

16:                                               ; preds = %13
  %17 = load ptr, ptr %7, align 8, !tbaa !18
  %18 = call i32 @strcmp(ptr noundef %17, ptr noundef @.str.39) #10
  %19 = icmp ne i32 %18, 0
  br i1 %19, label %24, label %20

20:                                               ; preds = %16
  %21 = call i32 @umask(i32 noundef 0) #9
  store i32 %21, ptr @tar_umask, align 4, !tbaa !4
  %22 = load i32, ptr @tar_umask, align 4, !tbaa !4
  %23 = call i32 @umask(i32 noundef %22) #9
  br label %31

24:                                               ; preds = %16, %13
  %25 = load ptr, ptr %6, align 8, !tbaa !18
  %26 = load ptr, ptr %7, align 8, !tbaa !18
  %27 = load ptr, ptr %8, align 8, !tbaa !27
  %28 = getelementptr inbounds nuw %struct.config_context, ptr %27, i32 0, i32 0
  %29 = load ptr, ptr %28, align 8, !tbaa !29
  %30 = call i32 @git_config_int(ptr noundef %25, ptr noundef %26, ptr noundef %29)
  store i32 %30, ptr @tar_umask, align 4, !tbaa !4
  br label %31

31:                                               ; preds = %24, %20
  store i32 0, ptr %5, align 4
  br label %37

32:                                               ; preds = %4
  %33 = load ptr, ptr %6, align 8, !tbaa !18
  %34 = load ptr, ptr %7, align 8, !tbaa !18
  %35 = load ptr, ptr %9, align 8, !tbaa !19
  %36 = call i32 @tar_filter_config(ptr noundef %33, ptr noundef %34, ptr noundef %35)
  store i32 %36, ptr %5, align 4
  br label %37

37:                                               ; preds = %32, %31
  %38 = load i32, ptr %5, align 4
  ret i32 %38
}