; Function Attrs: nounwind uwtable
define internal range(i32 -1, 1) i32 @git_tar_config(ptr noundef %0, ptr noundef %1, ptr noundef readonly captures(none) %2, ptr readnone captures(none) %3) #0 {
  %5 = tail call i32 @strcmp(ptr noundef nonnull dereferenceable(1) %0, ptr noundef nonnull dereferenceable(10) @.str.38) #13
  %.not = icmp eq i32 %5, 0
  br i1 %.not, label %6, label %15

6:                                                ; preds = %4
  %.not10 = icmp eq ptr %1, null
  br i1 %.not10, label %12, label %7

7:                                                ; preds = %6
  %8 = tail call i32 @strcmp(ptr noundef nonnull dereferenceable(1) %1, ptr noundef nonnull dereferenceable(5) @.str.39) #13
  %.not11 = icmp eq i32 %8, 0
  br i1 %.not11, label %9, label %12

9:                                                ; preds = %7
  %10 = tail call i32 @umask(i32 noundef 0) #11
  store i32 %10, ptr @tar_umask, align 4, !tbaa !9
  %11 = tail call i32 @umask(i32 noundef %10) #11
  br label %17

12:                                               ; preds = %7, %6
  %13 = load ptr, ptr %2, align 8, !tbaa !27
  %14 = tail call i32 @git_config_int(ptr noundef nonnull %0, ptr noundef %1, ptr noundef %13) #11
  store i32 %14, ptr @tar_umask, align 4, !tbaa !9
  br label %17

15:                                               ; preds = %4
  %16 = tail call fastcc i32 @tar_filter_config(ptr noundef nonnull %0, ptr noundef %1)
  br label %17

17:                                               ; preds = %9, %12, %15
  %.0 = phi i32 [ %16, %15 ], [ 0, %12 ], [ 0, %9 ]
  ret i32 %.0
}